Certificate:
    Data:
        Version: 3 (0x2)
        Serial Number:
            c2:e3:f3:04:ac:b7:95:35
        Signature Algorithm: sha1WithRSAEncryption
        Issuer: C=CN, ST=Guangdong, O=actions-micro, OU=software, CN=bluse/emailAddress=bluse.lee@actions-micro.com
        Validity
            Not Before: Mar 26 10:47:01 2015 GMT
            Not After : Mar 25 10:47:01 2018 GMT
        Subject: C=CN, ST=Guangdong, O=actions-micro, OU=software, CN=bluse/emailAddress=bluse.lee@actions-micro.com
        Subject Public Key Info:
            Public Key Algorithm: rsaEncryption
            RSA Public Key: (1024 bit)
                Modulus (1024 bit):
                    00:93:30:37:af:e7:1f:4a:08:68:95:be:5a:2d:94:
                    0a:d1:23:de:ad:f9:8f:e9:a4:3f:e6:28:79:55:94:
                    e3:74:51:62:70:50:ae:10:54:4c:01:5f:55:2f:b4:
                    4f:e6:b3:53:e2:dd:9d:a3:2c:f4:52:55:ea:b2:6a:
                    24:e9:44:c8:75:65:56:d7:76:88:fd:2e:95:b5:04:
                    32:56:a6:a4:75:b9:ad:98:44:66:4e:5d:03:95:bd:
                    64:4b:b2:0a:51:1a:a0:57:7c:18:8b:7b:ab:b4:2e:
                    d5:9a:4d:46:1b:98:b5:dd:5a:2d:21:46:ec:af:bb:
                    f3:ca:16:30:13:74:32:3f:9d
                Exponent: 65537 (0x10001)
        X509v3 extensions:
            X509v3 Subject Key Identifier: 
                68:DD:64:70:68:99:DD:C4:2C:09:F3:F9:04:61:E6:6E:A7:22:7C:82
            X509v3 Authority Key Identifier: 
                keyid:68:DD:64:70:68:99:DD:C4:2C:09:F3:F9:04:61:E6:6E:A7:22:7C:82
                DirName:/C=CN/ST=Guangdong/O=actions-micro/OU=software/CN=bluse/emailAddress=bluse.lee@actions-micro.com
                serial:C2:E3:F3:04:AC:B7:95:35

            X509v3 Basic Constraints: 
                CA:TRUE
    Signature Algorithm: sha1WithRSAEncryption
        35:bd:e6:6f:3e:9d:b3:9c:f3:25:ff:f2:4f:3f:9e:58:2e:51:
        e2:8b:ad:cf:3e:f3:4a:09:fa:49:c8:ab:31:9f:05:22:8e:8f:
        1d:dd:02:42:1e:35:02:82:eb:0c:aa:cc:f6:d4:b3:b3:48:da:
        4d:b2:97:fc:5c:56:fe:ad:d6:82:9a:71:df:03:1e:65:ef:ae:
        b6:2c:63:10:ca:5a:2d:94:e4:a4:0d:d6:94:93:49:fe:97:18:
        f8:39:87:a0:2a:c7:2f:a5:c5:88:80:e3:6a:0a:1d:22:f1:25:
        b2:e1:c2:aa:9b:6c:16:3c:d5:08:a8:b8:75:4a:d6:a3:c0:ff:
        89:54
-----BEGIN CERTIFICATE-----
MIIDgTCCAuqgAwIBAgIJAMLj8wSst5U1MA0GCSqGSIb3DQEBBQUAMIGIMQswCQYD
VQQGEwJDTjESMBAGA1UECBMJR3Vhbmdkb25nMRYwFAYDVQQKEw1hY3Rpb25zLW1p
Y3JvMREwDwYDVQQLEwhzb2Z0d2FyZTEOMAwGA1UEAxMFYmx1c2UxKjAoBgkqhkiG
9w0BCQEWG2JsdXNlLmxlZUBhY3Rpb25zLW1pY3JvLmNvbTAeFw0xNTAzMjYxMDQ3
MDFaFw0xODAzMjUxMDQ3MDFaMIGIMQswCQYDVQQGEwJDTjESMBAGA1UECBMJR3Vh
bmdkb25nMRYwFAYDVQQKEw1hY3Rpb25zLW1pY3JvMREwDwYDVQQLEwhzb2Z0d2Fy
ZTEOMAwGA1UEAxMFYmx1c2UxKjAoBgkqhkiG9w0BCQEWG2JsdXNlLmxlZUBhY3Rp
b25zLW1pY3JvLmNvbTCBnzANBgkqhkiG9w0BAQEFAAOBjQAwgYkCgYEAkzA3r+cf
Sgholb5aLZQK0SPerfmP6aQ/5ih5VZTjdFFicFCuEFRMAV9VL7RP5rNT4t2doyz0
UlXqsmok6UTIdWVW13aI/S6VtQQyVqakdbmtmERmTl0Dlb1kS7IKURqgV3wYi3ur
tC7Vmk1GG5i13VotIUbsr7vzyhYwE3QyP50CAwEAAaOB8DCB7TAdBgNVHQ4EFgQU
aN1kcGiZ3cQsCfP5BGHmbqcifIIwgb0GA1UdIwSBtTCBsoAUaN1kcGiZ3cQsCfP5
BGHmbqcifIKhgY6kgYswgYgxCzAJBgNVBAYTAkNOMRIwEAYDVQQIEwlHdWFuZ2Rv
bmcxFjAUBgNVBAoTDWFjdGlvbnMtbWljcm8xETAPBgNVBAsTCHNvZnR3YXJlMQ4w
DAYDVQQDEwVibHVzZTEqMCgGCSqGSIb3DQEJARYbYmx1c2UubGVlQGFjdGlvbnMt
bWljcm8uY29tggkAwuPzBKy3lTUwDAYDVR0TBAUwAwEB/zANBgkqhkiG9w0BAQUF
AAOBgQA1veZvPp2znPMl//JPP55YLlHii63PPvNKCfpJyKsxnwUijo8d3QJCHjUC
gusMqsz21LOzSNpNspf8XFb+rdaCmnHfAx5l7662LGMQylotlOSkDdaUk0n+lxj4
OYegKscvpcWIgONqCh0i8SWy4cKqm2wWPNUIqLh1StajwP+JVA==
-----END CERTIFICATE-----
