Certificate:
    Data:
        Version: 3 (0x2)
        Serial Number:
            c2:e3:f3:04:ac:b7:95:37
        Signature Algorithm: sha1WithRSAEncryption
        Issuer: C=CN, ST=Guangdong, O=actions-micro, OU=software, CN=bluse/emailAddress=bluse.lee@actions-micro.com
        Validity
            Not Before: Mar 27 02:23:21 2015 GMT
            Not After : Mar 26 02:23:21 2016 GMT
        Subject: C=CN, ST=Guangdong, L=shenzhen, O=actions-micro, OU=software, CN=bluse/emailAddress=bluse.lee@actions-micro.com
        Subject Public Key Info:
            Public Key Algorithm: rsaEncryption
            RSA Public Key: (1024 bit)
                Modulus (1024 bit):
                    00:ec:24:75:de:6a:fe:2e:54:b2:46:85:99:ca:80:
                    d6:86:de:0f:6a:e2:3c:a4:56:f0:c9:f7:de:5a:1d:
                    30:ea:c5:16:93:87:ec:8c:bd:15:db:46:72:62:42:
                    88:93:7d:85:ea:aa:6e:12:24:d0:43:64:a6:a8:f1:
                    39:f5:c0:d5:e8:f1:bc:4b:83:b8:69:95:94:c2:0a:
                    36:35:97:6c:e2:2c:72:10:42:b4:a3:c8:7b:3d:30:
                    38:28:bc:bf:fc:d7:6c:47:7f:29:86:0e:90:49:15:
                    10:31:18:61:2e:1d:d1:bb:d8:9f:a8:15:4d:7c:d1:
                    c4:41:4c:c2:df:0d:63:96:73
                Exponent: 65537 (0x10001)
        X509v3 extensions:
            X509v3 Basic Constraints: 
                CA:FALSE
            Netscape Comment: 
                OpenSSL Generated Certificate
            X509v3 Subject Key Identifier: 
                47:B5:6D:DF:F4:D2:B6:21:E2:09:3C:1E:2A:92:7D:1A:81:44:03:2F
            X509v3 Authority Key Identifier: 
                keyid:68:DD:64:70:68:99:DD:C4:2C:09:F3:F9:04:61:E6:6E:A7:22:7C:82

    Signature Algorithm: sha1WithRSAEncryption
        79:5c:eb:06:5a:bd:de:af:de:fb:35:d6:5f:91:9f:2f:3f:84:
        de:7b:fd:b3:af:69:3a:c5:7b:37:a3:a3:4b:bb:e6:ec:53:f2:
        6a:55:96:d7:c1:70:46:0f:3f:6f:01:3d:b3:d0:b1:76:5c:81:
        93:3f:65:02:0d:65:e3:71:8f:95:79:9a:70:f4:2d:39:27:43:
        18:5d:c8:0e:fa:40:9b:c0:6c:6a:68:a0:6e:1e:2f:bc:6c:f2:
        7a:e9:91:38:ee:83:cd:f6:dd:bd:68:57:1b:81:69:46:08:ee:
        77:1c:4c:08:5d:18:e2:27:bf:17:80:ee:98:e0:ed:dc:6b:ff:
        84:e9
-----BEGIN CERTIFICATE-----
MIIDHjCCAoegAwIBAgIJAMLj8wSst5U3MA0GCSqGSIb3DQEBBQUAMIGIMQswCQYD
VQQGEwJDTjESMBAGA1UECBMJR3Vhbmdkb25nMRYwFAYDVQQKEw1hY3Rpb25zLW1p
Y3JvMREwDwYDVQQLEwhzb2Z0d2FyZTEOMAwGA1UEAxMFYmx1c2UxKjAoBgkqhkiG
9w0BCQEWG2JsdXNlLmxlZUBhY3Rpb25zLW1pY3JvLmNvbTAeFw0xNTAzMjcwMjIz
MjFaFw0xNjAzMjYwMjIzMjFaMIGbMQswCQYDVQQGEwJDTjESMBAGA1UECBMJR3Vh
bmdkb25nMREwDwYDVQQHEwhzaGVuemhlbjEWMBQGA1UEChMNYWN0aW9ucy1taWNy
bzERMA8GA1UECxMIc29mdHdhcmUxDjAMBgNVBAMTBWJsdXNlMSowKAYJKoZIhvcN
AQkBFhtibHVzZS5sZWVAYWN0aW9ucy1taWNyby5jb20wgZ8wDQYJKoZIhvcNAQEB
BQADgY0AMIGJAoGBAOwkdd5q/i5UskaFmcqA1obeD2riPKRW8Mn33lodMOrFFpOH
7Iy9FdtGcmJCiJN9heqqbhIk0ENkpqjxOfXA1ejxvEuDuGmVlMIKNjWXbOIschBC
tKPIez0wOCi8v/zXbEd/KYYOkEkVEDEYYS4d0bvYn6gVTXzRxEFMwt8NY5ZzAgMB
AAGjezB5MAkGA1UdEwQCMAAwLAYJYIZIAYb4QgENBB8WHU9wZW5TU0wgR2VuZXJh
dGVkIENlcnRpZmljYXRlMB0GA1UdDgQWBBRHtW3f9NK2IeIJPB4qkn0agUQDLzAf
BgNVHSMEGDAWgBRo3WRwaJndxCwJ8/kEYeZupyJ8gjANBgkqhkiG9w0BAQUFAAOB
gQB5XOsGWr3er977NdZfkZ8vP4Tee/2zr2k6xXs3o6NLu+bsU/JqVZbXwXBGDz9v
AT2z0LF2XIGTP2UCDWXjcY+VeZpw9C05J0MYXcgO+kCbwGxqaKBuHi+8bPJ66ZE4
7oPN9t29aFcbgWlGCO53HEwIXRjiJ78XgO6Y4O3ca/+E6Q==
-----END CERTIFICATE-----
